target datalayout = "e-m:e-p270:32:32-p271:32:32-p272:64:64-i64:64-i128:128-f80:128-n8:16:32:64-S128"
target triple = "x86_64-pc-linux-gnu"

%struct.Tree_Sto_t_ = type { i32, i32, [16 x i32], [16 x i32], [16 x i32], [16 x i32], [16 x %struct.Vec_Int_t_], ptr }
%struct.Vec_Int_t_ = type { i32, i32, ptr }

; Function Attrs: inlinehint nounwind uwtable
define internal void @Vec_IntGrow(ptr noundef %0, i32 noundef %1) #4 {
  %3 = alloca ptr, align 8
  %4 = alloca i32, align 4
  store ptr %0, ptr %3, align 8, !tbaa !21
  store i32 %1, ptr %4, align 4, !tbaa !9
  %5 = load ptr, ptr %3, align 8, !tbaa !21
  %6 = getelementptr inbounds nuw %struct.Vec_Int_t_, ptr %5, i32 0, i32 0
  %7 = load i32, ptr %6, align 8, !tbaa !27
  %8 = load i32, ptr %4, align 4, !tbaa !9
  %9 = icmp sge i32 %7, %8
  br i1 %9, label %10, label %11

10:                                               ; preds = %2
  br label %36

11:                                               ; preds = %2
  %12 = load ptr, ptr %3, align 8, !tbaa !21
  %13 = getelementptr inbounds nuw %struct.Vec_Int_t_, ptr %12, i32 0, i32 2
  %14 = load ptr, ptr %13, align 8, !tbaa !26
  %15 = icmp ne ptr %14, null
  br i1 %15, label %16, label %24

16:                                               ; preds = %11
  %17 = load ptr, ptr %3, align 8, !tbaa !21
  %18 = getelementptr inbounds nuw %struct.Vec_Int_t_, ptr %17, i32 0, i32 2
  %19 = load ptr, ptr %18, align 8, !tbaa !26
  %20 = load i32, ptr %4, align 4, !tbaa !9
  %21 = sext i32 %20 to i64
  %22 = mul i64 4, %21
  %23 = call ptr @realloc(ptr noundef %19, i64 noundef %22) #16
  br label %29

24:                                               ; preds = %11
  %25 = load i32, ptr %4, align 4, !tbaa !9
  %26 = sext i32 %25 to i64
  %27 = mul i64 4, %26
  %28 = call noalias ptr @malloc(i64 noundef %27) #15
  br label %29

29:                                               ; preds = %24, %16
  %30 = phi ptr [ %23, %16 ], [ %28, %24 ]
  %31 = load ptr, ptr %3, align 8, !tbaa !21
  %32 = getelementptr inbounds nuw %struct.Vec_Int_t_, ptr %31, i32 0, i32 2
  store ptr %30, ptr %32, align 8, !tbaa !26
  %33 = load i32, ptr %4, align 4, !tbaa !9
  %34 = load ptr, ptr %3, align 8, !tbaa !21
  %35 = getelementptr inbounds nuw %struct.Vec_Int_t_, ptr %34, i32 0, i32 0
  store i32 %33, ptr %35, align 8, !tbaa !27
  br label %36

36:                                               ; preds = %29, %10
  ret void
}

; Function Attrs: inlinehint nounwind uwtable
define internal void @Vec_IntPush(ptr noundef %0, i32 noundef %1) #4 {
  %3 = alloca ptr, align 8
  %4 = alloca i32, align 4
  store ptr %0, ptr %3, align 8, !tbaa !21
  store i32 %1, ptr %4, align 4, !tbaa !9
  %5 = load ptr, ptr %3, align 8, !tbaa !21
  %6 = getelementptr inbounds nuw %struct.Vec_Int_t_, ptr %5, i32 0, i32 1
  %7 = load i32, ptr %6, align 4, !tbaa !23
  %8 = load ptr, ptr %3, align 8, !tbaa !21
  %9 = getelementptr inbounds nuw %struct.Vec_Int_t_, ptr %8, i32 0, i32 0
  %10 = load i32, ptr %9, align 8, !tbaa !27
  %11 = icmp eq i32 %7, %10
  br i1 %11, label %12, label %26

12:                                               ; preds = %2
  %13 = load ptr, ptr %3, align 8, !tbaa !21
  %14 = getelementptr inbounds nuw %struct.Vec_Int_t_, ptr %13, i32 0, i32 0
  %15 = load i32, ptr %14, align 8, !tbaa !27
  %16 = icmp slt i32 %15, 16
  br i1 %16, label %17, label %19

17:                                               ; preds = %12
  %18 = load ptr, ptr %3, align 8, !tbaa !21
  call void @Vec_IntGrow(ptr noundef %18, i32 noundef 16)
  br label %25

19:                                               ; preds = %12
  %20 = load ptr, ptr %3, align 8, !tbaa !21
  %21 = load ptr, ptr %3, align 8, !tbaa !21
  %22 = getelementptr inbounds nuw %struct.Vec_Int_t_, ptr %21, i32 0, i32 0
  %23 = load i32, ptr %22, align 8, !tbaa !27
  %24 = mul nsw i32 2, %23
  call void @Vec_IntGrow(ptr noundef %20, i32 noundef %24)
  br label %25

25:                                               ; preds = %19, %17
  br label %26

26:                                               ; preds = %25, %2
  %27 = load i32, ptr %4, align 4, !tbaa !9
  %28 = load ptr, ptr %3, align 8, !tbaa !21
  %29 = getelementptr inbounds nuw %struct.Vec_Int_t_, ptr %28, i32 0, i32 2
  %30 = load ptr, ptr %29, align 8, !tbaa !26
  %31 = load ptr, ptr %3, align 8, !tbaa !21
  %32 = getelementptr inbounds nuw %struct.Vec_Int_t_, ptr %31, i32 0, i32 1
  %33 = load i32, ptr %32, align 4, !tbaa !23
  %34 = add nsw i32 %33, 1
  store i32 %34, ptr %32, align 4, !tbaa !23
  %35 = sext i32 %33 to i64
  %36 = getelementptr inbounds i32, ptr %30, i64 %35
  store i32 %27, ptr %36, align 4, !tbaa !9
  ret void
}

; Function Attrs: inlinehint nounwind uwtable
define internal i32 @Abc_TtEqual(ptr noundef %0, ptr noundef %1, i32 noundef %2) #4 {
  %4 = alloca i32, align 4
  %5 = alloca ptr, align 8
  %6 = alloca ptr, align 8
  %7 = alloca i32, align 4
  %8 = alloca i32, align 4
  %9 = alloca i32, align 4
  store ptr %0, ptr %5, align 8, !tbaa !12
  store ptr %1, ptr %6, align 8, !tbaa !12
  store i32 %2, ptr %7, align 4, !tbaa !9
  call void @llvm.lifetime.start.p0(i64 4, ptr %8) #13
  store i32 0, ptr %8, align 4, !tbaa !9
  br label %10

10:                                               ; preds = %28, %3
  %11 = load i32, ptr %8, align 4, !tbaa !9
  %12 = load i32, ptr %7, align 4, !tbaa !9
  %13 = icmp slt i32 %11, %12
  br i1 %13, label %14, label %31

14:                                               ; preds = %10
  %15 = load ptr, ptr %5, align 8, !tbaa !12
  %16 = load i32, ptr %8, align 4, !tbaa !9
  %17 = sext i32 %16 to i64
  %18 = getelementptr inbounds i64, ptr %15, i64 %17
  %19 = load i64, ptr %18, align 8, !tbaa !33
  %20 = load ptr, ptr %6, align 8, !tbaa !12
  %21 = load i32, ptr %8, align 4, !tbaa !9
  %22 = sext i32 %21 to i64
  %23 = getelementptr inbounds i64, ptr %20, i64 %22
  %24 = load i64, ptr %23, align 8, !tbaa !33
  %25 = icmp ne i64 %19, %24
  br i1 %25, label %26, label %27

26:                                               ; preds = %14
  store i32 0, ptr %4, align 4
  store i32 1, ptr %9, align 4
  br label %32

27:                                               ; preds = %14
  br label %28

28:                                               ; preds = %27
  %29 = load i32, ptr %8, align 4, !tbaa !9
  %30 = add nsw i32 %29, 1
  store i32 %30, ptr %8, align 4, !tbaa !9
  br label %10, !llvm.loop !35

31:                                               ; preds = %10
  store i32 1, ptr %4, align 4
  store i32 1, ptr %9, align 4
  br label %32

32:                                               ; preds = %31, %26
  call void @llvm.lifetime.end.p0(i64 4, ptr %8) #13
  %33 = load i32, ptr %4, align 4
  ret i32 %33
}

; Function Attrs: inlinehint nounwind uwtable
define internal i32 @Vec_IntEntry(ptr noundef %0, i32 noundef %1) #4 {
  %3 = alloca ptr, align 8
  %4 = alloca i32, align 4
  store ptr %0, ptr %3, align 8, !tbaa !21
  store i32 %1, ptr %4, align 4, !tbaa !9
  %5 = load ptr, ptr %3, align 8, !tbaa !21
  %6 = getelementptr inbounds nuw %struct.Vec_Int_t_, ptr %5, i32 0, i32 2
  %7 = load ptr, ptr %6, align 8, !tbaa !26
  %8 = load i32, ptr %4, align 4, !tbaa !9
  %9 = sext i32 %8 to i64
  %10 = getelementptr inbounds i32, ptr %7, i64 %9
  %11 = load i32, ptr %10, align 4, !tbaa !9
  ret i32 %11
}

; Function Attrs: inlinehint nounwind uwtable
define internal i32 @Vec_IntSize(ptr noundef %0) #4 {
  %2 = alloca ptr, align 8
  store ptr %0, ptr %2, align 8, !tbaa !21
  %3 = load ptr, ptr %2, align 8, !tbaa !21
  %4 = getelementptr inbounds nuw %struct.Vec_Int_t_, ptr %3, i32 0, i32 1
  %5 = load i32, ptr %4, align 4, !tbaa !23
  ret i32 %5
}

; Function Attrs: inlinehint nounwind uwtable
define internal i32 @Abc_TtWordNum(i32 noundef %0) #4 {
  %2 = alloca i32, align 4
  store i32 %0, ptr %2, align 4, !tbaa !9
  %3 = load i32, ptr %2, align 4, !tbaa !9
  %4 = icmp sle i32 %3, 6
  br i1 %4, label %5, label %6

5:                                                ; preds = %1
  br label %10

6:                                                ; preds = %1
  %7 = load i32, ptr %2, align 4, !tbaa !9
  %8 = sub nsw i32 %7, 6
  %9 = shl i32 1, %8
  br label %10

10:                                               ; preds = %6, %5
  %11 = phi i32 [ 1, %5 ], [ %9, %6 ]
  ret i32 %11
}

; Function Attrs: nounwind uwtable
define i32 @Gia_ManFindOrAddNode(ptr noundef %0, i32 noundef %1, i32 noundef %2, ptr noundef %3) #0 {
  %5 = alloca i32, align 4
  %6 = alloca ptr, align 8
  %7 = alloca i32, align 4
  %8 = alloca i32, align 4
  %9 = alloca ptr, align 8
  %10 = alloca i32, align 4
  %11 = alloca i32, align 4
  %12 = alloca i32, align 4
  %13 = alloca i32, align 4
  store ptr %0, ptr %6, align 8, !tbaa !3
  store i32 %1, ptr %7, align 4, !tbaa !9
  store i32 %2, ptr %8, align 4, !tbaa !9
  store ptr %3, ptr %9, align 8, !tbaa !12
  call void @llvm.lifetime.start.p0(i64 4, ptr %10) #13
  call void @llvm.lifetime.start.p0(i64 4, ptr %11) #13
  %14 = load i32, ptr %7, align 4, !tbaa !9
  %15 = icmp sgt i32 %14, 5
  br i1 %15, label %16, label %75

16:                                               ; preds = %4
  call void @llvm.lifetime.start.p0(i64 4, ptr %12) #13
  %17 = load i32, ptr %7, align 4, !tbaa !9
  %18 = call i32 @Abc_TtWordNum(i32 noundef %17)
  store i32 %18, ptr %12, align 4, !tbaa !9
  store i32 0, ptr %10, align 4, !tbaa !9
  br label %19

19:                                               ; preds = %53, %16
  %20 = load i32, ptr %10, align 4, !tbaa !9
  %21 = load ptr, ptr %6, align 8, !tbaa !3
  %22 = getelementptr inbounds nuw %struct.Tree_Sto_t_, ptr %21, i32 0, i32 6
  %23 = getelementptr inbounds [16 x %struct.Vec_Int_t_], ptr %22, i64 0, i64 0
  %24 = load i32, ptr %7, align 4, !tbaa !9
  %25 = sext i32 %24 to i64
  %26 = getelementptr inbounds %struct.Vec_Int_t_, ptr %23, i64 %25
  %27 = call i32 @Vec_IntSize(ptr noundef %26)
  %28 = icmp slt i32 %20, %27
  br i1 %28, label %29, label %38

29:                                               ; preds = %19
  %30 = load ptr, ptr %6, align 8, !tbaa !3
  %31 = getelementptr inbounds nuw %struct.Tree_Sto_t_, ptr %30, i32 0, i32 6
  %32 = getelementptr inbounds [16 x %struct.Vec_Int_t_], ptr %31, i64 0, i64 0
  %33 = load i32, ptr %7, align 4, !tbaa !9
  %34 = sext i32 %33 to i64
  %35 = getelementptr inbounds %struct.Vec_Int_t_, ptr %32, i64 %34
  %36 = load i32, ptr %10, align 4, !tbaa !9
  %37 = call i32 @Vec_IntEntry(ptr noundef %35, i32 noundef %36)
  store i32 %37, ptr %11, align 4, !tbaa !9
  br label %38

38:                                               ; preds = %29, %19
  %39 = phi i1 [ false, %19 ], [ true, %29 ]
  br i1 %39, label %40, label %56

40:                                               ; preds = %38
  %41 = load ptr, ptr %6, align 8, !tbaa !3
  %42 = getelementptr inbounds nuw %struct.Tree_Sto_t_, ptr %41, i32 0, i32 7
  %43 = load ptr, ptr %42, align 8, !tbaa !14
  %44 = load i32, ptr %11, align 4, !tbaa !9
  %45 = sext i32 %44 to i64
  %46 = getelementptr inbounds i64, ptr %43, i64 %45
  %47 = load ptr, ptr %9, align 8, !tbaa !12
  %48 = load i32, ptr %12, align 4, !tbaa !9
  %49 = call i32 @Abc_TtEqual(ptr noundef %46, ptr noundef %47, i32 noundef %48)
  %50 = icmp ne i32 %49, 0
  br i1 %50, label %51, label %52

51:                                               ; preds = %40
  store i32 1, ptr %5, align 4
  store i32 1, ptr %13, align 4
  br label %72

52:                                               ; preds = %40
  br label %53

53:                                               ; preds = %52
  %54 = load i32, ptr %10, align 4, !tbaa !9
  %55 = add nsw i32 %54, 1
  store i32 %55, ptr %10, align 4, !tbaa !9
  br label %19, !llvm.loop !31

56:                                               ; preds = %38
  %57 = load ptr, ptr %6, align 8, !tbaa !3
  %58 = getelementptr inbounds nuw %struct.Tree_Sto_t_, ptr %57, i32 0, i32 6
  %59 = getelementptr inbounds [16 x %struct.Vec_Int_t_], ptr %58, i64 0, i64 0
  %60 = load i32, ptr %7, align 4, !tbaa !9
  %61 = sext i32 %60 to i64
  %62 = getelementptr inbounds %struct.Vec_Int_t_, ptr %59, i64 %61
  %63 = load ptr, ptr %9, align 8, !tbaa !12
  %64 = load ptr, ptr %6, align 8, !tbaa !3
  %65 = getelementptr inbounds nuw %struct.Tree_Sto_t_, ptr %64, i32 0, i32 7
  %66 = load ptr, ptr %65, align 8, !tbaa !14
  %67 = ptrtoint ptr %63 to i64
  %68 = ptrtoint ptr %66 to i64
  %69 = sub i64 %67, %68
  %70 = sdiv exact i64 %69, 8
  %71 = trunc i64 %70 to i32
  call void @Vec_IntPush(ptr noundef %62, i32 noundef %71)
  store i32 0, ptr %13, align 4
  br label %72

72:                                               ; preds = %56, %51
  call void @llvm.lifetime.end.p0(i64 4, ptr %12) #13
  %73 = load i32, ptr %13, align 4
  switch i32 %73, label %115 [
    i32 0, label %74
  ]

74:                                               ; preds = %72
  br label %114

75:                                               ; preds = %4
  store i32 0, ptr %10, align 4, !tbaa !9
  br label %76

76:                                               ; preds = %103, %75
  %77 = load i32, ptr %10, align 4, !tbaa !9
  %78 = load ptr, ptr %6, align 8, !tbaa !3
  %79 = getelementptr inbounds nuw %struct.Tree_Sto_t_, ptr %78, i32 0, i32 6
  %80 = getelementptr inbounds [16 x %struct.Vec_Int_t_], ptr %79, i64 0, i64 0
  %81 = load i32, ptr %7, align 4, !tbaa !9
  %82 = sext i32 %81 to i64
  %83 = getelementptr inbounds %struct.Vec_Int_t_, ptr %80, i64 %82
  %84 = call i32 @Vec_IntSize(ptr noundef %83)
  %85 = icmp slt i32 %77, %84
  br i1 %85, label %86, label %95

86:                                               ; preds = %76
  %87 = load ptr, ptr %6, align 8, !tbaa !3
  %88 = getelementptr inbounds nuw %struct.Tree_Sto_t_, ptr %87, i32 0, i32 6
  %89 = getelementptr inbounds [16 x %struct.Vec_Int_t_], ptr %88, i64 0, i64 0
  %90 = load i32, ptr %7, align 4, !tbaa !9
  %91 = sext i32 %90 to i64
  %92 = getelementptr inbounds %struct.Vec_Int_t_, ptr %89, i64 %91
  %93 = load i32, ptr %10, align 4, !tbaa !9
  %94 = call i32 @Vec_IntEntry(ptr noundef %92, i32 noundef %93)
  store i32 %94, ptr %11, align 4, !tbaa !9
  br label %95

95:                                               ; preds = %86, %76
  %96 = phi i1 [ false, %76 ], [ true, %86 ]
  br i1 %96, label %97, label %106

97:                                               ; preds = %95
  %98 = load i32, ptr %11, align 4, !tbaa !9
  %99 = load i32, ptr %8, align 4, !tbaa !9
  %100 = icmp eq i32 %98, %99
  br i1 %100, label %101, label %102

101:                                              ; preds = %97
  store i32 1, ptr %5, align 4
  store i32 1, ptr %13, align 4
  br label %115

102:                                              ; preds = %97
  br label %103

103:                                              ; preds = %102
  %104 = load i32, ptr %10, align 4, !tbaa !9
  %105 = add nsw i32 %104, 1
  store i32 %105, ptr %10, align 4, !tbaa !9
  br label %76, !llvm.loop !32

106:                                              ; preds = %95
  %107 = load ptr, ptr %6, align 8, !tbaa !3
  %108 = getelementptr inbounds nuw %struct.Tree_Sto_t_, ptr %107, i32 0, i32 6
  %109 = getelementptr inbounds [16 x %struct.Vec_Int_t_], ptr %108, i64 0, i64 0
  %110 = load i32, ptr %7, align 4, !tbaa !9
  %111 = sext i32 %110 to i64
  %112 = getelementptr inbounds %struct.Vec_Int_t_, ptr %109, i64 %111
  %113 = load i32, ptr %8, align 4, !tbaa !9
  call void @Vec_IntPush(ptr noundef %112, i32 noundef %113)
  br label %114

114:                                              ; preds = %106, %74
  store i32 0, ptr %5, align 4
  store i32 1, ptr %13, align 4
  br label %115

115:                                              ; preds = %114, %101, %72
  call void @llvm.lifetime.end.p0(i64 4, ptr %11) #13
  call void @llvm.lifetime.end.p0(i64 4, ptr %10) #13
  %116 = load i32, ptr %5, align 4
  ret i32 %116
}