; Function Attrs: nounwind uwtable
define range(i32 0, 2) i32 @Gia_ManFindOrAddNode(ptr noundef captures(none) %0, i32 noundef %1, i32 noundef %2, ptr noundef %3) local_unnamed_addr #0 {
  %5 = icmp sgt i32 %1, 5
  %6 = getelementptr inbounds nuw i8, ptr %0, i64 264
  br i1 %5, label %12, label %.preheader

.preheader:                                       ; preds = %4
  %7 = sext i32 %1 to i64
  %8 = getelementptr inbounds %struct.Vec_Int_t_, ptr %6, i64 %7
  %9 = getelementptr i8, ptr %8, i64 4
  %.val = load i32, ptr %9, align 4, !tbaa !18
  %10 = icmp sgt i32 %.val, 0
  br i1 %10, label %.lr.ph, label %.critedge2

.lr.ph:                                           ; preds = %.preheader
  %11 = getelementptr i8, ptr %8, i64 8
  %.val39 = load ptr, ptr %11, align 8, !tbaa !21
  %wide.trip.count = zext nneg i32 %.val to i64
  br label %64

12:                                               ; preds = %4
  %13 = zext nneg i32 %1 to i64
  %14 = getelementptr inbounds nuw %struct.Vec_Int_t_, ptr %6, i64 %13
  %15 = getelementptr i8, ptr %14, i64 4
  %.val38 = load i32, ptr %15, align 4, !tbaa !18
  %.not3770 = icmp sgt i32 %.val38, 0
  br i1 %.not3770, label %.lr.ph72, label %..critedge_crit_edge

..critedge_crit_edge:                             ; preds = %12
  %.phi.trans.insert = getelementptr inbounds nuw i8, ptr %0, i64 520
  %.pre = load ptr, ptr %.phi.trans.insert, align 8, !tbaa !12
  br label %.critedge

.lr.ph72:                                         ; preds = %12
  %16 = add nsw i32 %1, -6
  %17 = shl nuw i32 1, %16
  %18 = getelementptr i8, ptr %14, i64 8
  %.val40 = load ptr, ptr %18, align 8, !tbaa !21
  %19 = getelementptr inbounds nuw i8, ptr %0, i64 520
  %20 = load ptr, ptr %19, align 8, !tbaa !12
  %.not = icmp eq i32 %16, 31
  %wide.trip.count.i = zext nneg i32 %17 to i64
  br i1 %.not, label %.thread50, label %.lr.ph.preheader.i.preheader

.lr.ph.preheader.i.preheader:                     ; preds = %.lr.ph72
  %wide.trip.count81 = zext nneg i32 %.val38 to i64
  br label %.lr.ph.preheader.i

.lr.ph.preheader.i:                               ; preds = %.lr.ph.preheader.i.preheader, %Abc_TtEqual.exit
  %indvars.iv78 = phi i64 [ 0, %.lr.ph.preheader.i.preheader ], [ %indvars.iv.next79, %Abc_TtEqual.exit ]
  %21 = getelementptr inbounds nuw i32, ptr %.val40, i64 %indvars.iv78
  %22 = load i32, ptr %21, align 4, !tbaa !4
  %23 = sext i32 %22 to i64
  %24 = getelementptr inbounds i64, ptr %20, i64 %23
  br label %.lr.ph.i

25:                                               ; preds = %.lr.ph.i
  %indvars.iv.next.i = add nuw nsw i64 %indvars.iv.i, 1
  %exitcond.not.i = icmp eq i64 %indvars.iv.next.i, %wide.trip.count.i
  br i1 %exitcond.not.i, label %.thread50, label %.lr.ph.i, !llvm.loop !29

.lr.ph.i:                                         ; preds = %25, %.lr.ph.preheader.i
  %indvars.iv.i = phi i64 [ 0, %.lr.ph.preheader.i ], [ %indvars.iv.next.i, %25 ]
  %26 = getelementptr inbounds nuw i64, ptr %24, i64 %indvars.iv.i
  %27 = load i64, ptr %26, align 8, !tbaa !16
  %28 = getelementptr inbounds nuw i64, ptr %3, i64 %indvars.iv.i
  %29 = load i64, ptr %28, align 8, !tbaa !16
  %.not.i = icmp eq i64 %27, %29
  br i1 %.not.i, label %25, label %Abc_TtEqual.exit

Abc_TtEqual.exit:                                 ; preds = %.lr.ph.i
  %indvars.iv.next79 = add nuw nsw i64 %indvars.iv78, 1
  %exitcond82.not = icmp eq i64 %indvars.iv.next79, %wide.trip.count81
  br i1 %exitcond82.not, label %.critedge, label %.lr.ph.preheader.i, !llvm.loop !30

.critedge:                                        ; preds = %Abc_TtEqual.exit, %..critedge_crit_edge
  %30 = phi ptr [ %.pre, %..critedge_crit_edge ], [ %20, %Abc_TtEqual.exit ]
  %31 = ptrtoint ptr %3 to i64
  %32 = ptrtoint ptr %30 to i64
  %33 = sub i64 %31, %32
  %34 = lshr exact i64 %33, 3
  %35 = trunc i64 %34 to i32
  %36 = load i32, ptr %14, align 8, !tbaa !22
  %37 = icmp eq i32 %.val38, %36
  br i1 %37, label %38, label %.Vec_IntGrow.exit10_crit_edge.i

.Vec_IntGrow.exit10_crit_edge.i:                  ; preds = %.critedge
  %.phi.trans.insert.i = getelementptr inbounds nuw i8, ptr %14, i64 8
  %.pre.i = load ptr, ptr %.phi.trans.insert.i, align 8, !tbaa !21
  br label %.thread

38:                                               ; preds = %.critedge
  %39 = icmp slt i32 %.val38, 16
  br i1 %39, label %40, label %48

40:                                               ; preds = %38
  %41 = getelementptr inbounds nuw i8, ptr %14, i64 8
  %42 = load ptr, ptr %41, align 8, !tbaa !21
  %.not9.i.i = icmp eq ptr %42, null
  br i1 %.not9.i.i, label %45, label %43

43:                                               ; preds = %40
  %44 = tail call dereferenceable_or_null(64) ptr @realloc(ptr noundef nonnull %42, i64 noundef 64) #23
  br label %Vec_IntGrow.exit.i

45:                                               ; preds = %40
  %46 = tail call noalias dereferenceable_or_null(64) ptr @malloc(i64 noundef 64) #22
  br label %Vec_IntGrow.exit.i

Vec_IntGrow.exit.i:                               ; preds = %45, %43
  %47 = phi ptr [ %44, %43 ], [ %46, %45 ]
  store ptr %47, ptr %41, align 8, !tbaa !21
  store i32 16, ptr %14, align 8, !tbaa !22
  br label %.thread

48:                                               ; preds = %38
  %49 = shl nuw nsw i32 %.val38, 1
  %50 = getelementptr inbounds nuw i8, ptr %14, i64 8
  %51 = load ptr, ptr %50, align 8, !tbaa !21
  %.not9.i9.i = icmp eq ptr %51, null
  %52 = zext nneg i32 %49 to i64
  %53 = shl nuw nsw i64 %52, 2
  br i1 %.not9.i9.i, label %56, label %54

54:                                               ; preds = %48
  %55 = tail call ptr @realloc(ptr noundef nonnull %51, i64 noundef %53) #23
  br label %58

56:                                               ; preds = %48
  %57 = tail call noalias ptr @malloc(i64 noundef %53) #22
  br label %58

58:                                               ; preds = %56, %54
  %59 = phi ptr [ %55, %54 ], [ %57, %56 ]
  store ptr %59, ptr %50, align 8, !tbaa !21
  store i32 %49, ptr %14, align 8, !tbaa !22
  br label %.thread

.thread:                                          ; preds = %58, %Vec_IntGrow.exit.i, %.Vec_IntGrow.exit10_crit_edge.i
  %60 = phi ptr [ %.pre.i, %.Vec_IntGrow.exit10_crit_edge.i ], [ %59, %58 ], [ %47, %Vec_IntGrow.exit.i ]
  %61 = load i32, ptr %15, align 4, !tbaa !18
  %62 = add nsw i32 %61, 1
  store i32 %62, ptr %15, align 4, !tbaa !18
  br label %.thread50.sink.split

63:                                               ; preds = %64
  %indvars.iv.next = add nuw nsw i64 %indvars.iv, 1
  %exitcond.not = icmp eq i64 %indvars.iv.next, %wide.trip.count
  br i1 %exitcond.not, label %.critedge2, label %64, !llvm.loop !31

64:                                               ; preds = %.lr.ph, %63
  %indvars.iv = phi i64 [ 0, %.lr.ph ], [ %indvars.iv.next, %63 ]
  %65 = getelementptr inbounds nuw i32, ptr %.val39, i64 %indvars.iv
  %66 = load i32, ptr %65, align 4, !tbaa !4
  %67 = icmp eq i32 %66, %2
  br i1 %67, label %.thread50, label %63

.critedge2:                                       ; preds = %63, %.preheader
  %68 = load i32, ptr %8, align 8, !tbaa !22
  %69 = icmp eq i32 %.val, %68
  br i1 %69, label %70, label %.Vec_IntGrow.exit10_crit_edge.i41

.Vec_IntGrow.exit10_crit_edge.i41:                ; preds = %.critedge2
  %.phi.trans.insert.i42 = getelementptr inbounds nuw i8, ptr %8, i64 8
  %.pre.i43 = load ptr, ptr %.phi.trans.insert.i42, align 8, !tbaa !21
  br label %Vec_IntPush.exit47

70:                                               ; preds = %.critedge2
  %71 = icmp slt i32 %.val, 16
  br i1 %71, label %72, label %80

72:                                               ; preds = %70
  %73 = getelementptr inbounds nuw i8, ptr %8, i64 8
  %74 = load ptr, ptr %73, align 8, !tbaa !21
  %.not9.i.i45 = icmp eq ptr %74, null
  br i1 %.not9.i.i45, label %77, label %75

75:                                               ; preds = %72
  %76 = tail call dereferenceable_or_null(64) ptr @realloc(ptr noundef nonnull %74, i64 noundef 64) #23
  br label %Vec_IntGrow.exit.i46

77:                                               ; preds = %72
  %78 = tail call noalias dereferenceable_or_null(64) ptr @malloc(i64 noundef 64) #22
  br label %Vec_IntGrow.exit.i46

Vec_IntGrow.exit.i46:                             ; preds = %77, %75
  %79 = phi ptr [ %76, %75 ], [ %78, %77 ]
  store ptr %79, ptr %73, align 8, !tbaa !21
  store i32 16, ptr %8, align 8, !tbaa !22
  br label %Vec_IntPush.exit47

80:                                               ; preds = %70
  %81 = shl nuw nsw i32 %.val, 1
  %82 = getelementptr inbounds nuw i8, ptr %8, i64 8
  %83 = load ptr, ptr %82, align 8, !tbaa !21
  %.not9.i9.i44 = icmp eq ptr %83, null
  %84 = zext nneg i32 %81 to i64
  %85 = shl nuw nsw i64 %84, 2
  br i1 %.not9.i9.i44, label %88, label %86

86:                                               ; preds = %80
  %87 = tail call ptr @realloc(ptr noundef nonnull %83, i64 noundef %85) #23
  br label %90

88:                                               ; preds = %80
  %89 = tail call noalias ptr @malloc(i64 noundef %85) #22
  br label %90

90:                                               ; preds = %88, %86
  %91 = phi ptr [ %87, %86 ], [ %89, %88 ]
  store ptr %91, ptr %82, align 8, !tbaa !21
  store i32 %81, ptr %8, align 8, !tbaa !22
  br label %Vec_IntPush.exit47

Vec_IntPush.exit47:                               ; preds = %.Vec_IntGrow.exit10_crit_edge.i41, %Vec_IntGrow.exit.i46, %90
  %92 = phi ptr [ %.pre.i43, %.Vec_IntGrow.exit10_crit_edge.i41 ], [ %91, %90 ], [ %79, %Vec_IntGrow.exit.i46 ]
  %93 = load i32, ptr %9, align 4, !tbaa !18
  %94 = add nsw i32 %93, 1
  store i32 %94, ptr %9, align 4, !tbaa !18
  br label %.thread50.sink.split

.thread50.sink.split:                             ; preds = %.thread, %Vec_IntPush.exit47
  %.sink87 = phi i32 [ %93, %Vec_IntPush.exit47 ], [ %61, %.thread ]
  %.sink85 = phi ptr [ %92, %Vec_IntPush.exit47 ], [ %60, %.thread ]
  %.sink = phi i32 [ %2, %Vec_IntPush.exit47 ], [ %35, %.thread ]
  %95 = sext i32 %.sink87 to i64
  %96 = getelementptr inbounds i32, ptr %.sink85, i64 %95
  store i32 %.sink, ptr %96, align 4, !tbaa !4
  br label %.thread50

.thread50:                                        ; preds = %64, %25, %.thread50.sink.split, %.lr.ph72
  %.1 = phi i32 [ 1, %.lr.ph72 ], [ 0, %.thread50.sink.split ], [ 1, %25 ], [ 1, %64 ]
  ret i32 %.1
}